target datalayout = "e-m:e-p270:32:32-p271:32:32-p272:64:64-i64:64-i128:128-f80:128-n8:16:32:64-S128"
target triple = "x86_64-pc-linux-gnu"

%struct.bufferevent_pair = type { %struct.bufferevent_private, ptr, ptr }
%struct.bufferevent_private = type { %struct.bufferevent, ptr, i8, i16, i16, i16, i32, i32, %struct.event_callback, i32, i32, ptr, i64, i64, ptr, %union.anon.7, ptr }
%struct.bufferevent = type { ptr, ptr, %struct.event, %struct.event, ptr, ptr, %struct.event_watermark, %struct.event_watermark, ptr, ptr, ptr, ptr, %struct.timeval, %struct.timeval, i16 }
%struct.event = type { %struct.event_callback, %union.anon.0, i32, i16, i16, ptr, %union.anon.2, %struct.timeval }
%union.anon.0 = type { %struct.anon.1 }
%struct.anon.1 = type { ptr, ptr }
%union.anon.2 = type { %struct.anon.3 }
%struct.anon.3 = type { %struct.anon.4, %struct.timeval }
%struct.anon.4 = type { ptr, ptr }
%struct.event_watermark = type { i64, i64 }
%struct.timeval = type { i64, i64 }
%struct.event_callback = type { %struct.anon, i16, i8, i8, %union.anon, ptr }
%struct.anon = type { ptr, ptr }
%union.anon = type { ptr }
%union.anon.7 = type { %struct.sockaddr_in6 }
%struct.sockaddr_in6 = type { i16, i16, i32, %struct.in6_addr, i32 }
%struct.in6_addr = type { %union.anon.8 }
%union.anon.8 = type { [4 x i32] }

; Function Attrs: inlinehint nounwind uwtable
define internal void @decref_and_unlock(ptr noundef %0) #3 {
  %2 = alloca ptr, align 8
  %3 = alloca ptr, align 8
  store ptr %0, ptr %2, align 8
  call void @llvm.lifetime.start.p0(i64 8, ptr %3) #4
  %4 = load ptr, ptr %2, align 8
  %5 = call ptr @upcast(ptr noundef %4)
  store ptr %5, ptr %3, align 8
  %6 = load ptr, ptr %3, align 8
  %7 = getelementptr inbounds nuw %struct.bufferevent_pair, ptr %6, i32 0, i32 1
  %8 = load ptr, ptr %7, align 8
  %9 = icmp ne ptr %8, null
  br i1 %9, label %10, label %17

10:                                               ; preds = %1
  %11 = load ptr, ptr %3, align 8
  %12 = getelementptr inbounds nuw %struct.bufferevent_pair, ptr %11, i32 0, i32 1
  %13 = load ptr, ptr %12, align 8
  %14 = getelementptr inbounds nuw %struct.bufferevent_pair, ptr %13, i32 0, i32 0
  %15 = getelementptr inbounds nuw %struct.bufferevent_private, ptr %14, i32 0, i32 0
  %16 = call i32 @bufferevent_decref_and_unlock_(ptr noundef %15)
  br label %17

17:                                               ; preds = %10, %1
  %18 = load ptr, ptr %2, align 8
  %19 = call i32 @bufferevent_decref_and_unlock_(ptr noundef %18)
  call void @llvm.lifetime.end.p0(i64 8, ptr %3) #4
  ret void
}

; Function Attrs: inlinehint nounwind uwtable
define internal void @incref_and_lock(ptr noundef %0) #3 {
  %2 = alloca ptr, align 8
  %3 = alloca ptr, align 8
  store ptr %0, ptr %2, align 8
  call void @llvm.lifetime.start.p0(i64 8, ptr %3) #4
  %4 = load ptr, ptr %2, align 8
  call void @bufferevent_incref_and_lock_(ptr noundef %4)
  %5 = load ptr, ptr %2, align 8
  %6 = call ptr @upcast(ptr noundef %5)
  store ptr %6, ptr %3, align 8
  %7 = load ptr, ptr %3, align 8
  %8 = getelementptr inbounds nuw %struct.bufferevent_pair, ptr %7, i32 0, i32 1
  %9 = load ptr, ptr %8, align 8
  %10 = icmp ne ptr %9, null
  br i1 %10, label %11, label %17

11:                                               ; preds = %1
  %12 = load ptr, ptr %3, align 8
  %13 = getelementptr inbounds nuw %struct.bufferevent_pair, ptr %12, i32 0, i32 1
  %14 = load ptr, ptr %13, align 8
  %15 = getelementptr inbounds nuw %struct.bufferevent_pair, ptr %14, i32 0, i32 0
  %16 = getelementptr inbounds nuw %struct.bufferevent_private, ptr %15, i32 0, i32 0
  call void @bufferevent_incref_and_lock_(ptr noundef %16)
  br label %17

17:                                               ; preds = %11, %1
  call void @llvm.lifetime.end.p0(i64 8, ptr %3) #4
  ret void
}

; Function Attrs: inlinehint nounwind uwtable
define internal ptr @upcast(ptr noundef %0) #3 {
  %2 = alloca ptr, align 8
  %3 = alloca ptr, align 8
  store ptr %0, ptr %2, align 8
  call void @llvm.lifetime.start.p0(i64 8, ptr %3) #4
  %4 = load ptr, ptr %2, align 8
  %5 = getelementptr inbounds i8, ptr %4, i64 0
  store ptr %5, ptr %3, align 8
  br label %6

6:                                                ; preds = %1
  br label %7

7:                                                ; preds = %6
  br label %8

8:                                                ; preds = %7
  %9 = load ptr, ptr %3, align 8
  call void @llvm.lifetime.end.p0(i64 8, ptr %3) #4
  ret ptr %9
}

; Function Attrs: nounwind uwtable
define internal i32 @be_pair_flush(ptr noundef %0, i16 noundef signext %1, i32 noundef %2) #0 {
  %4 = alloca i32, align 4
  %5 = alloca ptr, align 8
  %6 = alloca i16, align 2
  %7 = alloca i32, align 4
  %8 = alloca ptr, align 8
  %9 = alloca ptr, align 8
  %10 = alloca i32, align 4
  %11 = alloca i16, align 2
  store ptr %0, ptr %5, align 8
  store i16 %1, ptr %6, align 2
  store i32 %2, ptr %7, align 4
  call void @llvm.lifetime.start.p0(i64 8, ptr %8) #4
  %12 = load ptr, ptr %5, align 8
  %13 = call ptr @upcast(ptr noundef %12)
  store ptr %13, ptr %8, align 8
  call void @llvm.lifetime.start.p0(i64 8, ptr %9) #4
  %14 = load ptr, ptr %8, align 8
  %15 = getelementptr inbounds nuw %struct.bufferevent_pair, ptr %14, i32 0, i32 1
  %16 = load ptr, ptr %15, align 8
  %17 = icmp ne ptr %16, null
  br i1 %17, label %19, label %18

18:                                               ; preds = %3
  store i32 -1, ptr %4, align 4
  store i32 1, ptr %10, align 4
  br label %73

19:                                               ; preds = %3
  %20 = load i32, ptr %7, align 4
  %21 = icmp eq i32 %20, 0
  br i1 %21, label %22, label %23

22:                                               ; preds = %19
  store i32 0, ptr %4, align 4
  store i32 1, ptr %10, align 4
  br label %73

23:                                               ; preds = %19
  %24 = load ptr, ptr %5, align 8
  call void @incref_and_lock(ptr noundef %24)
  %25 = load ptr, ptr %8, align 8
  %26 = getelementptr inbounds nuw %struct.bufferevent_pair, ptr %25, i32 0, i32 1
  %27 = load ptr, ptr %26, align 8
  %28 = getelementptr inbounds nuw %struct.bufferevent_pair, ptr %27, i32 0, i32 0
  %29 = getelementptr inbounds nuw %struct.bufferevent_private, ptr %28, i32 0, i32 0
  store ptr %29, ptr %9, align 8
  %30 = load i16, ptr %6, align 2
  %31 = sext i16 %30 to i32
  %32 = and i32 %31, 2
  %33 = icmp ne i32 %32, 0
  br i1 %33, label %34, label %37

34:                                               ; preds = %23
  %35 = load ptr, ptr %9, align 8
  %36 = load ptr, ptr %5, align 8
  call void @be_pair_transfer(ptr noundef %35, ptr noundef %36, i32 noundef 1)
  br label %37

37:                                               ; preds = %34, %23
  %38 = load i16, ptr %6, align 2
  %39 = sext i16 %38 to i32
  %40 = and i32 %39, 4
  %41 = icmp ne i32 %40, 0
  br i1 %41, label %42, label %45

42:                                               ; preds = %37
  %43 = load ptr, ptr %5, align 8
  %44 = load ptr, ptr %9, align 8
  call void @be_pair_transfer(ptr noundef %43, ptr noundef %44, i32 noundef 1)
  br label %45

45:                                               ; preds = %42, %37
  %46 = load i32, ptr %7, align 4
  %47 = icmp eq i32 %46, 2
  br i1 %47, label %48, label %71

48:                                               ; preds = %45
  call void @llvm.lifetime.start.p0(i64 2, ptr %11) #4
  store i16 16, ptr %11, align 2
  %49 = load i16, ptr %6, align 2
  %50 = sext i16 %49 to i32
  %51 = and i32 %50, 2
  %52 = icmp ne i32 %51, 0
  br i1 %52, label %53, label %58

53:                                               ; preds = %48
  %54 = load i16, ptr %11, align 2
  %55 = sext i16 %54 to i32
  %56 = or i32 %55, 2
  %57 = trunc i32 %56 to i16
  store i16 %57, ptr %11, align 2
  br label %58

58:                                               ; preds = %53, %48
  %59 = load i16, ptr %6, align 2
  %60 = sext i16 %59 to i32
  %61 = and i32 %60, 4
  %62 = icmp ne i32 %61, 0
  br i1 %62, label %63, label %68

63:                                               ; preds = %58
  %64 = load i16, ptr %11, align 2
  %65 = sext i16 %64 to i32
  %66 = or i32 %65, 1
  %67 = trunc i32 %66 to i16
  store i16 %67, ptr %11, align 2
  br label %68

68:                                               ; preds = %63, %58
  %69 = load ptr, ptr %9, align 8
  %70 = load i16, ptr %11, align 2
  call void @bufferevent_run_eventcb_(ptr noundef %69, i16 noundef signext %70, i32 noundef 0)
  call void @llvm.lifetime.end.p0(i64 2, ptr %11) #4
  br label %71

71:                                               ; preds = %68, %45
  %72 = load ptr, ptr %5, align 8
  call void @decref_and_unlock(ptr noundef %72)
  store i32 0, ptr %4, align 4
  store i32 1, ptr %10, align 4
  br label %73

73:                                               ; preds = %71, %22, %18
  call void @llvm.lifetime.end.p0(i64 8, ptr %9) #4
  call void @llvm.lifetime.end.p0(i64 8, ptr %8) #4
  %74 = load i32, ptr %4, align 4
  ret i32 %74
}