; Function Attrs: nounwind uwtable
define internal range(i32 -1, 1) i32 @be_pair_flush(ptr noundef %0, i16 noundef signext %1, i32 noundef %2) #0 {
  %4 = getelementptr inbounds nuw i8, ptr %0, i64 520
  %5 = load ptr, ptr %4, align 8
  %.not = icmp eq ptr %5, null
  br i1 %.not, label %25, label %6

6:                                                ; preds = %3
  %7 = icmp eq i32 %2, 0
  br i1 %7, label %25, label %8

8:                                                ; preds = %6
  tail call void @bufferevent_incref_and_lock_(ptr noundef nonnull %0) #4
  %9 = load ptr, ptr %4, align 8
  %.not.i = icmp eq ptr %9, null
  br i1 %.not.i, label %incref_and_lock.exit, label %10

10:                                               ; preds = %8
  tail call void @bufferevent_incref_and_lock_(ptr noundef nonnull %9) #4
  %.pre = load ptr, ptr %4, align 8
  br label %incref_and_lock.exit

incref_and_lock.exit:                             ; preds = %8, %10
  %11 = phi ptr [ null, %8 ], [ %.pre, %10 ]
  %12 = and i16 %1, 2
  %.not21 = icmp eq i16 %12, 0
  br i1 %.not21, label %14, label %13

13:                                               ; preds = %incref_and_lock.exit
  tail call fastcc void @be_pair_transfer(ptr noundef %11, ptr noundef nonnull %0, i32 noundef 1)
  br label %14

14:                                               ; preds = %13, %incref_and_lock.exit
  %15 = and i16 %1, 4
  %.not22 = icmp eq i16 %15, 0
  br i1 %.not22, label %17, label %16

16:                                               ; preds = %14
  tail call fastcc void @be_pair_transfer(ptr noundef nonnull %0, ptr noundef %11, i32 noundef 1)
  br label %17

17:                                               ; preds = %16, %14
  %18 = icmp eq i32 %2, 2
  br i1 %18, label %19, label %20

19:                                               ; preds = %17
  %.1.v = select i1 %.not22, i16 16, i16 17
  %.1 = or disjoint i16 %.1.v, %12
  tail call void @bufferevent_run_eventcb_(ptr noundef %11, i16 noundef signext %.1, i32 noundef 0) #4
  br label %20

20:                                               ; preds = %19, %17
  %21 = load ptr, ptr %4, align 8
  %.not.i23 = icmp eq ptr %21, null
  br i1 %.not.i23, label %decref_and_unlock.exit, label %22

22:                                               ; preds = %20
  %23 = tail call i32 @bufferevent_decref_and_unlock_(ptr noundef nonnull %21) #4
  br label %decref_and_unlock.exit

decref_and_unlock.exit:                           ; preds = %20, %22
  %24 = tail call i32 @bufferevent_decref_and_unlock_(ptr noundef nonnull %0) #4
  br label %25

25:                                               ; preds = %6, %3, %decref_and_unlock.exit
  %.019 = phi i32 [ 0, %decref_and_unlock.exit ], [ -1, %3 ], [ 0, %6 ]
  ret i32 %.019
}